; Function Attrs: nounwind uwtable
define dso_local i32 @ASN1_TIME_set_string(ptr noundef %0, ptr noundef %1) local_unnamed_addr #1 {
  %3 = tail call i32 @ASN1_UTCTIME_set_string(ptr noundef %0, ptr noundef %1) #8
  %.not = icmp eq i32 %3, 0
  br i1 %.not, label %4, label %6

4:                                                ; preds = %2
  %5 = tail call i32 @ASN1_GENERALIZEDTIME_set_string(ptr noundef %0, ptr noundef %1) #8
  br label %6

6:                                                ; preds = %2, %4
  %.0 = phi i32 [ %5, %4 ], [ 1, %2 ]
  ret i32 %.0
}